; Function Attrs: mustprogress uwtable
define void @_ZN6casadi10FiniteDiff15get_sparsity_inEx(ptr dead_on_unwind noalias writable sret(%"class.casadi::Sparsity") align 8 %0, ptr noundef nonnull align 8 dereferenceable(1392) %1, i64 noundef %2) unnamed_addr #3 align 2 {
  %4 = getelementptr inbounds i8, ptr %1, i64 704
  %5 = tail call noundef i64 @_ZNK6casadi8Function4n_inEv(ptr noundef nonnull align 8 dereferenceable(8) %4)
  %6 = tail call noundef i64 @_ZNK6casadi8Function5n_outEv(ptr noundef nonnull align 8 dereferenceable(8) %4)
  %7 = icmp sgt i64 %5, %2
  br i1 %7, label %8, label %10

8:                                                ; preds = %3
  %9 = tail call noundef nonnull align 8 dereferenceable(8) ptr @_ZNK6casadi8Function11sparsity_inEx(ptr noundef nonnull align 8 dereferenceable(8) %4, i64 noundef %2)
  tail call void @_ZN6casadi12SharedObjectC2ERKS0_(ptr noundef nonnull align 8 dereferenceable(8) %0, ptr noundef nonnull align 8 dereferenceable(8) %9)
  br label %21

10:                                               ; preds = %3
  %11 = add nsw i64 %6, %5
  %12 = icmp sgt i64 %11, %2
  br i1 %12, label %13, label %16

13:                                               ; preds = %10
  %14 = sub nsw i64 %2, %5
  %15 = tail call noundef nonnull align 8 dereferenceable(8) ptr @_ZNK6casadi8Function12sparsity_outEx(ptr noundef nonnull align 8 dereferenceable(8) %4, i64 noundef %14)
  tail call void @_ZN6casadi12SharedObjectC2ERKS0_(ptr noundef nonnull align 8 dereferenceable(8) %0, ptr noundef nonnull align 8 dereferenceable(8) %15)
  br label %21

16:                                               ; preds = %10
  %17 = sub i64 %2, %11
  %18 = tail call noundef nonnull align 8 dereferenceable(8) ptr @_ZNK6casadi8Function11sparsity_inEx(ptr noundef nonnull align 8 dereferenceable(8) %4, i64 noundef %17)
  %19 = getelementptr inbounds i8, ptr %1, i64 1304
  %20 = load i64, ptr %19, align 8
  tail call void @_ZN6casadi17SparsityInterfaceINS_8SparsityEE6repmatERKS1_xx(ptr dead_on_unwind writable sret(%"class.casadi::Sparsity") align 8 %0, ptr noundef nonnull align 8 dereferenceable(8) %18, i64 noundef 1, i64 noundef %20)
  br label %21

21:                                               ; preds = %16, %13, %8
  ret void
}